; Function Attrs: mustprogress nounwind uwtable
define hidden void @_ZN4cvc58internal23CodatatypeBoundVariableD2Ev(ptr noundef nonnull align 8 dereferenceable(24) %this) unnamed_addr #6 align 2 personality ptr @__gxx_personality_v0 {
entry:
  %d_index = getelementptr inbounds nuw i8, ptr %this, i64 8
  invoke void @__gmpz_clear(ptr noundef nonnull align 8 dereferenceable(16) %d_index)
          to label %_ZN4cvc58internal7IntegerD2Ev.exit unwind label %terminate.lpad.i.i

terminate.lpad.i.i:                               ; preds = %entry
  %0 = landingpad { ptr, i32 }
          catch ptr null
  %1 = extractvalue { ptr, i32 } %0, 0
  tail call void @__clang_call_terminate(ptr %1) #16
  unreachable

_ZN4cvc58internal7IntegerD2Ev.exit:               ; preds = %entry
  %2 = load ptr, ptr %this, align 8
  %cmp.not.i = icmp eq ptr %2, null
  br i1 %cmp.not.i, label %_ZNSt10unique_ptrIN4cvc58internal8TypeNodeESt14default_deleteIS2_EED2Ev.exit, label %delete.notnull.i.i

delete.notnull.i.i:                               ; preds = %_ZN4cvc58internal7IntegerD2Ev.exit
  %3 = load ptr, ptr %2, align 8
  %bf.load.i.i.i.i = load i64, ptr %3, align 8
  %4 = and i64 %bf.load.i.i.i.i, 1152920405095219200
  %cmp.not.i.i.i.i = icmp eq i64 %4, 1152920405095219200
  br i1 %cmp.not.i.i.i.i, label %_ZNKSt14default_deleteIN4cvc58internal8TypeNodeEEclEPS2_.exit.i, label %if.then.i.i.i.i

if.then.i.i.i.i:                                  ; preds = %delete.notnull.i.i
  %bf.value.i.i.i.i = add i64 %bf.load.i.i.i.i, 1152920405095219200
  %bf.shl.i.i.i.i = and i64 %bf.value.i.i.i.i, 1152920405095219200
  %bf.clear7.i.i.i.i = and i64 %bf.load.i.i.i.i, -1152920405095219201
  %bf.set.i.i.i.i = or disjoint i64 %bf.shl.i.i.i.i, %bf.clear7.i.i.i.i
  store i64 %bf.set.i.i.i.i, ptr %3, align 8
  %cmp12.i.i.i.i = icmp eq i64 %bf.shl.i.i.i.i, 0
  br i1 %cmp12.i.i.i.i, label %if.then13.i.i.i.i, label %_ZNKSt14default_deleteIN4cvc58internal8TypeNodeEEclEPS2_.exit.i

if.then13.i.i.i.i:                                ; preds = %if.then.i.i.i.i
  invoke void @_ZN4cvc58internal4expr9NodeValue15markForDeletionEv(ptr noundef nonnull align 8 dereferenceable(16) %3)
          to label %_ZNKSt14default_deleteIN4cvc58internal8TypeNodeEEclEPS2_.exit.i unwind label %terminate.lpad.i.i.i

terminate.lpad.i.i.i:                             ; preds = %if.then13.i.i.i.i
  %5 = landingpad { ptr, i32 }
          catch ptr null
  %6 = extractvalue { ptr, i32 } %5, 0
  tail call void @__clang_call_terminate(ptr %6) #16
  unreachable

_ZNKSt14default_deleteIN4cvc58internal8TypeNodeEEclEPS2_.exit.i: ; preds = %if.then13.i.i.i.i, %if.then.i.i.i.i, %delete.notnull.i.i
  tail call void @_ZdlPv(ptr noundef nonnull %2) #14
  br label %_ZNSt10unique_ptrIN4cvc58internal8TypeNodeESt14default_deleteIS2_EED2Ev.exit

_ZNSt10unique_ptrIN4cvc58internal8TypeNodeESt14default_deleteIS2_EED2Ev.exit: ; preds = %_ZN4cvc58internal7IntegerD2Ev.exit, %_ZNKSt14default_deleteIN4cvc58internal8TypeNodeEEclEPS2_.exit.i
  store ptr null, ptr %this, align 8
  ret void
}